target datalayout = "e-m:e-p270:32:32-p271:32:32-p272:64:64-i64:64-i128:128-f80:128-n8:16:32:64-S128"
target triple = "x86_64-pc-linux-gnu"

%union.AVRefStructOpaque = type { ptr }
%struct.RefCount = type { i64, %union.AVRefStructOpaque, ptr, ptr }
%struct.AVRefStructPool = type { i64, %union.AVRefStructOpaque, ptr, ptr, ptr, ptr, i32, i32, i32, i64, ptr, %union.pthread_mutex_t }
%union.pthread_mutex_t = type { %struct.__pthread_mutex_s }
%struct.__pthread_mutex_s = type { i32, i32, i32, i32, i32, i16, i16, %struct.__pthread_internal_list }
%struct.__pthread_internal_list = type { ptr, ptr }

; Function Attrs: nounwind uwtable
define internal ptr @get_userdata(ptr noundef %0) #0 {
  %2 = alloca ptr, align 8
  store ptr %0, ptr %2, align 8, !tbaa !10
  %3 = load ptr, ptr %2, align 8, !tbaa !10
  %4 = getelementptr inbounds nuw i8, ptr %3, i64 32
  ret ptr %4
}

; Function Attrs: nounwind uwtable
define internal void @refcount_init(ptr noundef %0, ptr %1, ptr noundef %2) #0 {
  %4 = alloca %union.AVRefStructOpaque, align 8
  %5 = alloca ptr, align 8
  %6 = alloca ptr, align 8
  %7 = getelementptr inbounds nuw %union.AVRefStructOpaque, ptr %4, i32 0, i32 0
  store ptr %1, ptr %7, align 8
  store ptr %0, ptr %5, align 8, !tbaa !12
  store ptr %2, ptr %6, align 8, !tbaa !10
  %8 = load ptr, ptr %5, align 8, !tbaa !12
  %9 = getelementptr inbounds nuw %struct.RefCount, ptr %8, i32 0, i32 0
  store i64 1, ptr %9, align 8, !tbaa !14
  %10 = load ptr, ptr %5, align 8, !tbaa !12
  %11 = getelementptr inbounds nuw %struct.RefCount, ptr %10, i32 0, i32 1
  call void @llvm.memcpy.p0.p0.i64(ptr align 8 %11, ptr align 8 %4, i64 8, i1 false), !tbaa.struct !15
  %12 = load ptr, ptr %6, align 8, !tbaa !10
  %13 = load ptr, ptr %5, align 8, !tbaa !12
  %14 = getelementptr inbounds nuw %struct.RefCount, ptr %13, i32 0, i32 2
  store ptr %12, ptr %14, align 8, !tbaa !16
  %15 = load ptr, ptr %5, align 8, !tbaa !12
  %16 = getelementptr inbounds nuw %struct.RefCount, ptr %15, i32 0, i32 3
  store ptr @av_free, ptr %16, align 8, !tbaa !18
  ret void
}

; Function Attrs: nounwind uwtable
define ptr @av_refstruct_alloc_ext_c(i64 noundef %0, i32 noundef %1, ptr %2, ptr noundef %3) #0 {
  %5 = alloca ptr, align 8
  %6 = alloca %union.AVRefStructOpaque, align 8
  %7 = alloca i64, align 8
  %8 = alloca i32, align 4
  %9 = alloca ptr, align 8
  %10 = alloca ptr, align 8
  %11 = alloca ptr, align 8
  %12 = alloca i32, align 4
  %13 = getelementptr inbounds nuw %union.AVRefStructOpaque, ptr %6, i32 0, i32 0
  store ptr %2, ptr %13, align 8
  store i64 %0, ptr %7, align 8, !tbaa !4
  store i32 %1, ptr %8, align 4, !tbaa !8
  store ptr %3, ptr %9, align 8, !tbaa !10
  call void @llvm.lifetime.start.p0(i64 8, ptr %10) #7
  call void @llvm.lifetime.start.p0(i64 8, ptr %11) #7
  %14 = load i64, ptr %7, align 8, !tbaa !4
  %15 = icmp ugt i64 %14, -33
  br i1 %15, label %16, label %17

16:                                               ; preds = %4
  store ptr null, ptr %5, align 8
  store i32 1, ptr %12, align 4
  br label %39

17:                                               ; preds = %4
  %18 = load i64, ptr %7, align 8, !tbaa !4
  %19 = add i64 %18, 32
  %20 = call noalias ptr @av_malloc(i64 noundef %19)
  store ptr %20, ptr %10, align 8, !tbaa !10
  %21 = load ptr, ptr %10, align 8, !tbaa !10
  %22 = icmp ne ptr %21, null
  br i1 %22, label %24, label %23

23:                                               ; preds = %17
  store ptr null, ptr %5, align 8
  store i32 1, ptr %12, align 4
  br label %39

24:                                               ; preds = %17
  %25 = load ptr, ptr %10, align 8, !tbaa !10
  %26 = load ptr, ptr %9, align 8, !tbaa !10
  %27 = getelementptr inbounds nuw %union.AVRefStructOpaque, ptr %6, i32 0, i32 0
  %28 = load ptr, ptr %27, align 8
  call void @refcount_init(ptr noundef %25, ptr %28, ptr noundef %26)
  %29 = load ptr, ptr %10, align 8, !tbaa !10
  %30 = call ptr @get_userdata(ptr noundef %29)
  store ptr %30, ptr %11, align 8, !tbaa !10
  %31 = load i32, ptr %8, align 4, !tbaa !8
  %32 = and i32 %31, 1
  %33 = icmp ne i32 %32, 0
  br i1 %33, label %37, label %34

34:                                               ; preds = %24
  %35 = load ptr, ptr %11, align 8, !tbaa !10
  %36 = load i64, ptr %7, align 8, !tbaa !4
  call void @llvm.memset.p0.i64(ptr align 1 %35, i8 0, i64 %36, i1 false)
  br label %37

37:                                               ; preds = %34, %24
  %38 = load ptr, ptr %11, align 8, !tbaa !10
  store ptr %38, ptr %5, align 8
  store i32 1, ptr %12, align 4
  br label %39

39:                                               ; preds = %37, %23, %16
  call void @llvm.lifetime.end.p0(i64 8, ptr %11) #7
  call void @llvm.lifetime.end.p0(i64 8, ptr %10) #7
  %40 = load ptr, ptr %5, align 8
  ret ptr %40
}

; Function Attrs: nounwind uwtable
define internal ptr @get_refcount(ptr noundef %0) #0 {
  %2 = alloca ptr, align 8
  %3 = alloca ptr, align 8
  store ptr %0, ptr %2, align 8, !tbaa !10
  call void @llvm.lifetime.start.p0(i64 8, ptr %3) #7
  %4 = load ptr, ptr %2, align 8, !tbaa !10
  %5 = getelementptr inbounds i8, ptr %4, i64 -32
  store ptr %5, ptr %3, align 8, !tbaa !12
  %6 = load ptr, ptr %3, align 8, !tbaa !12
  call void @llvm.lifetime.end.p0(i64 8, ptr %3) #7
  ret ptr %6
}

; Function Attrs: inlinehint nounwind uwtable
define internal ptr @av_refstruct_alloc_ext(i64 noundef %0, i32 noundef %1, ptr noundef %2, ptr noundef %3) #5 {
  %5 = alloca i64, align 8
  %6 = alloca i32, align 4
  %7 = alloca ptr, align 8
  %8 = alloca ptr, align 8
  %9 = alloca %union.AVRefStructOpaque, align 8
  store i64 %0, ptr %5, align 8, !tbaa !4
  store i32 %1, ptr %6, align 4, !tbaa !8
  store ptr %2, ptr %7, align 8, !tbaa !10
  store ptr %3, ptr %8, align 8, !tbaa !10
  %10 = load i64, ptr %5, align 8, !tbaa !4
  %11 = load i32, ptr %6, align 4, !tbaa !8
  %12 = load ptr, ptr %7, align 8, !tbaa !10
  store ptr %12, ptr %9, align 8, !tbaa !14
  %13 = load ptr, ptr %8, align 8, !tbaa !10
  %14 = getelementptr inbounds nuw %union.AVRefStructOpaque, ptr %9, i32 0, i32 0
  %15 = load ptr, ptr %14, align 8
  %16 = call ptr @av_refstruct_alloc_ext_c(i64 noundef %10, i32 noundef %11, ptr %15, ptr noundef %13)
  ret ptr %16
}

; Function Attrs: nounwind uwtable
define ptr @av_refstruct_pool_alloc_ext_c(i64 noundef %0, i32 noundef %1, ptr %2, ptr noundef %3, ptr noundef %4, ptr noundef %5, ptr noundef %6) #0 {
  %8 = alloca ptr, align 8
  %9 = alloca %union.AVRefStructOpaque, align 8
  %10 = alloca i64, align 8
  %11 = alloca i32, align 4
  %12 = alloca ptr, align 8
  %13 = alloca ptr, align 8
  %14 = alloca ptr, align 8
  %15 = alloca ptr, align 8
  %16 = alloca ptr, align 8
  %17 = alloca i32, align 4
  %18 = alloca i32, align 4
  %19 = getelementptr inbounds nuw %union.AVRefStructOpaque, ptr %9, i32 0, i32 0
  store ptr %2, ptr %19, align 8
  store i64 %0, ptr %10, align 8, !tbaa !4
  store i32 %1, ptr %11, align 4, !tbaa !8
  store ptr %3, ptr %12, align 8, !tbaa !10
  store ptr %4, ptr %13, align 8, !tbaa !10
  store ptr %5, ptr %14, align 8, !tbaa !10
  store ptr %6, ptr %15, align 8, !tbaa !10
  call void @llvm.lifetime.start.p0(i64 8, ptr %16) #7
  %20 = call ptr @av_refstruct_alloc_ext(i64 noundef 120, i32 noundef 0, ptr noundef null, ptr noundef @refstruct_pool_uninit)
  store ptr %20, ptr %16, align 8, !tbaa !19
  call void @llvm.lifetime.start.p0(i64 4, ptr %17) #7
  %21 = load ptr, ptr %16, align 8, !tbaa !19
  %22 = icmp ne ptr %21, null
  br i1 %22, label %24, label %23

23:                                               ; preds = %7
  store ptr null, ptr %8, align 8
  store i32 1, ptr %18, align 4
  br label %89

24:                                               ; preds = %7
  %25 = load ptr, ptr %16, align 8, !tbaa !19
  %26 = call ptr @get_refcount(ptr noundef %25)
  %27 = getelementptr inbounds nuw %struct.RefCount, ptr %26, i32 0, i32 3
  store ptr @pool_unref, ptr %27, align 8, !tbaa !18
  %28 = load i64, ptr %10, align 8, !tbaa !4
  %29 = load ptr, ptr %16, align 8, !tbaa !19
  %30 = getelementptr inbounds nuw %struct.AVRefStructPool, ptr %29, i32 0, i32 0
  store i64 %28, ptr %30, align 8, !tbaa !23
  %31 = load ptr, ptr %16, align 8, !tbaa !19
  %32 = getelementptr inbounds nuw %struct.AVRefStructPool, ptr %31, i32 0, i32 1
  call void @llvm.memcpy.p0.p0.i64(ptr align 8 %32, ptr align 8 %9, i64 8, i1 false), !tbaa.struct !15
  %33 = load ptr, ptr %12, align 8, !tbaa !10
  %34 = load ptr, ptr %16, align 8, !tbaa !19
  %35 = getelementptr inbounds nuw %struct.AVRefStructPool, ptr %34, i32 0, i32 2
  store ptr %33, ptr %35, align 8, !tbaa !26
  %36 = load ptr, ptr %13, align 8, !tbaa !10
  %37 = load ptr, ptr %16, align 8, !tbaa !19
  %38 = getelementptr inbounds nuw %struct.AVRefStructPool, ptr %37, i32 0, i32 3
  store ptr %36, ptr %38, align 8, !tbaa !25
  %39 = load ptr, ptr %14, align 8, !tbaa !10
  %40 = load ptr, ptr %16, align 8, !tbaa !19
  %41 = getelementptr inbounds nuw %struct.AVRefStructPool, ptr %40, i32 0, i32 4
  store ptr %39, ptr %41, align 8, !tbaa !28
  %42 = load ptr, ptr %15, align 8, !tbaa !10
  %43 = load ptr, ptr %16, align 8, !tbaa !19
  %44 = getelementptr inbounds nuw %struct.AVRefStructPool, ptr %43, i32 0, i32 5
  store ptr %42, ptr %44, align 8, !tbaa !29
  %45 = load i32, ptr %11, align 4, !tbaa !8
  %46 = and i32 %45, 1
  %47 = load ptr, ptr %16, align 8, !tbaa !19
  %48 = getelementptr inbounds nuw %struct.AVRefStructPool, ptr %47, i32 0, i32 7
  store i32 %46, ptr %48, align 4, !tbaa !24
  %49 = load ptr, ptr %16, align 8, !tbaa !19
  %50 = getelementptr inbounds nuw %struct.AVRefStructPool, ptr %49, i32 0, i32 3
  %51 = load ptr, ptr %50, align 8, !tbaa !25
  %52 = icmp ne ptr %51, null
  br i1 %52, label %56, label %53

53:                                               ; preds = %24
  %54 = load i32, ptr %11, align 4, !tbaa !8
  %55 = and i32 %54, -65537
  store i32 %55, ptr %11, align 4, !tbaa !8
  br label %56

56:                                               ; preds = %53, %24
  %57 = load ptr, ptr %16, align 8, !tbaa !19
  %58 = getelementptr inbounds nuw %struct.AVRefStructPool, ptr %57, i32 0, i32 4
  %59 = load ptr, ptr %58, align 8, !tbaa !28
  %60 = icmp ne ptr %59, null
  br i1 %60, label %64, label %61

61:                                               ; preds = %56
  %62 = load i32, ptr %11, align 4, !tbaa !8
  %63 = and i32 %62, -131073
  store i32 %63, ptr %11, align 4, !tbaa !8
  br label %64

64:                                               ; preds = %61, %56
  %65 = load i32, ptr %11, align 4, !tbaa !8
  %66 = load ptr, ptr %16, align 8, !tbaa !19
  %67 = getelementptr inbounds nuw %struct.AVRefStructPool, ptr %66, i32 0, i32 8
  store i32 %65, ptr %67, align 8, !tbaa !27
  %68 = load i32, ptr %11, align 4, !tbaa !8
  %69 = and i32 %68, 262144
  %70 = icmp ne i32 %69, 0
  br i1 %70, label %71, label %76

71:                                               ; preds = %64
  %72 = load ptr, ptr %16, align 8, !tbaa !19
  %73 = getelementptr inbounds nuw %struct.AVRefStructPool, ptr %72, i32 0, i32 7
  %74 = load i32, ptr %73, align 4, !tbaa !24
  %75 = or i32 %74, 1
  store i32 %75, ptr %73, align 4, !tbaa !24
  br label %76

76:                                               ; preds = %71, %64
  %77 = load ptr, ptr %16, align 8, !tbaa !19
  %78 = getelementptr inbounds nuw %struct.AVRefStructPool, ptr %77, i32 0, i32 9
  store i64 1, ptr %78, align 8, !tbaa !14
  %79 = load ptr, ptr %16, align 8, !tbaa !19
  %80 = getelementptr inbounds nuw %struct.AVRefStructPool, ptr %79, i32 0, i32 11
  %81 = call i32 @pthread_mutex_init(ptr noundef %80, ptr noundef null) #7
  store i32 %81, ptr %17, align 4, !tbaa !8
  %82 = load i32, ptr %17, align 4, !tbaa !8
  %83 = icmp ne i32 %82, 0
  br i1 %83, label %84, label %87

84:                                               ; preds = %76
  %85 = load ptr, ptr %16, align 8, !tbaa !19
  %86 = call ptr @get_refcount(ptr noundef %85)
  call void @av_free(ptr noundef %86)
  store ptr null, ptr %8, align 8
  store i32 1, ptr %18, align 4
  br label %89

87:                                               ; preds = %76
  %88 = load ptr, ptr %16, align 8, !tbaa !19
  store ptr %88, ptr %8, align 8
  store i32 1, ptr %18, align 4
  br label %89

89:                                               ; preds = %87, %84, %23
  call void @llvm.lifetime.end.p0(i64 4, ptr %17) #7
  call void @llvm.lifetime.end.p0(i64 8, ptr %16) #7
  %90 = load ptr, ptr %8, align 8
  ret ptr %90
}