; Function Attrs: nounwind uwtable
define noundef ptr @av_refstruct_pool_alloc_ext_c(i64 noundef %0, i32 noundef %1, ptr %2, ptr noundef %3, ptr noundef %4, ptr noundef %5, ptr noundef %6) local_unnamed_addr #0 {
  %8 = tail call noalias ptr @av_malloc(i64 noundef 152) #5
  %.not.i.i = icmp eq ptr %8, null
  br i1 %.not.i.i, label %av_refstruct_alloc_ext.exit.thread, label %9

9:                                                ; preds = %7
  store i64 1, ptr %8, align 8, !tbaa !4
  %10 = getelementptr inbounds nuw i8, ptr %8, i64 8
  store ptr null, ptr %10, align 8, !tbaa !4
  %11 = getelementptr inbounds nuw i8, ptr %8, i64 16
  store ptr @refstruct_pool_uninit, ptr %11, align 8, !tbaa !7
  %12 = getelementptr inbounds nuw i8, ptr %8, i64 24
  %13 = getelementptr inbounds nuw i8, ptr %8, i64 32
  %14 = getelementptr inbounds nuw i8, ptr %8, i64 80
  tail call void @llvm.memset.p0.i64(ptr noundef nonnull align 1 dereferenceable(72) %14, i8 0, i64 72, i1 false)
  store ptr @pool_unref, ptr %12, align 8, !tbaa !10
  store i64 %0, ptr %13, align 8, !tbaa !16
  %15 = getelementptr inbounds nuw i8, ptr %8, i64 40
  store ptr %2, ptr %15, align 8, !tbaa !4
  %16 = getelementptr inbounds nuw i8, ptr %8, i64 48
  store ptr %3, ptr %16, align 8, !tbaa !19
  %17 = getelementptr inbounds nuw i8, ptr %8, i64 56
  store ptr %4, ptr %17, align 8, !tbaa !18
  %18 = getelementptr inbounds nuw i8, ptr %8, i64 64
  store ptr %5, ptr %18, align 8, !tbaa !21
  %19 = getelementptr inbounds nuw i8, ptr %8, i64 72
  store ptr %6, ptr %19, align 8, !tbaa !22
  %20 = and i32 %1, 1
  %21 = getelementptr inbounds nuw i8, ptr %8, i64 84
  store i32 %20, ptr %21, align 4, !tbaa !17
  %.not30 = icmp eq ptr %4, null
  %22 = and i32 %1, -65537
  %spec.select = select i1 %.not30, i32 %22, i32 %1
  %.not31 = icmp eq ptr %5, null
  %23 = and i32 %spec.select, -131073
  %.1 = select i1 %.not31, i32 %23, i32 %spec.select
  %24 = getelementptr inbounds nuw i8, ptr %8, i64 88
  store i32 %.1, ptr %24, align 8, !tbaa !20
  %25 = and i32 %.1, 262144
  %.not32 = icmp eq i32 %25, 0
  br i1 %.not32, label %27, label %26

26:                                               ; preds = %9
  store i32 1, ptr %21, align 4, !tbaa !17
  br label %27

27:                                               ; preds = %26, %9
  %28 = getelementptr inbounds nuw i8, ptr %8, i64 96
  store i64 1, ptr %28, align 8, !tbaa !4
  %29 = getelementptr inbounds nuw i8, ptr %8, i64 112
  %30 = tail call i32 @pthread_mutex_init(ptr noundef nonnull %29, ptr noundef null) #5
  %.not33 = icmp eq i32 %30, 0
  br i1 %.not33, label %av_refstruct_alloc_ext.exit.thread, label %31

31:                                               ; preds = %27
  tail call void @av_free(ptr noundef nonnull %8) #5
  br label %av_refstruct_alloc_ext.exit.thread

av_refstruct_alloc_ext.exit.thread:               ; preds = %7, %27, %31
  %.0 = phi ptr [ null, %31 ], [ %13, %27 ], [ null, %7 ]
  ret ptr %.0
}